; ModuleID = '54/1162.c'
source_filename = "54/1162.c"
target datalayout = "e-m:e-p270:32:32-p271:32:32-p272:64:64-i64:64-f80:128-n8:16:32:64-S128"
target triple = "x86_64-pc-linux-gnu"

@.str = private unnamed_addr constant [6 x i8] c"%d %d\00", align 1
@.str.1 = private unnamed_addr constant [3 x i8] c"%d\00", align 1

; Function Attrs: noinline nounwind uwtable
define dso_local i32 @main() #0 {
  %1 = alloca i32, align 4
  %2 = alloca i32, align 4
  %3 = alloca i32, align 4
  %4 = alloca i32, align 4
  %5 = alloca i32, align 4
  %6 = alloca i32, align 4
  %7 = alloca x86_fp80, align 16
  store i32 0, i32* %1, align 4
  %8 = call i32 (i8*, ...) @__isoc99_scanf(i8* getelementptr inbounds ([6 x i8], [6 x i8]* @.str, i64 0, i64 0), i32* %2, i32* %5)
  %9 = load i32, i32* %5, align 4
  %10 = sitofp i32 %9 to x86_fp80
  store x86_fp80 %10, x86_fp80* %7, align 16
  br label %11

11:                                               ; preds = %54, %0
  %12 = load x86_fp80, x86_fp80* %7, align 16
  %13 = fcmp olt x86_fp80 %12, 0xK401CEE6B280000000000
  br i1 %13, label %14, label %57

14:                                               ; preds = %11
  store i32 0, i32* %3, align 4
  store i32 1, i32* %6, align 4
  %15 = load x86_fp80, x86_fp80* %7, align 16
  %16 = load i32, i32* %2, align 4
  %17 = sitofp i32 %16 to x86_fp80
  %18 = fmul x86_fp80 %15, %17
  %19 = load i32, i32* %5, align 4
  %20 = sitofp i32 %19 to x86_fp80
  %21 = fadd x86_fp80 %18, %20
  %22 = fptosi x86_fp80 %21 to i32
  store i32 %22, i32* %3, align 4
  store i32 1, i32* %4, align 4
  br label %23

23:                                               ; preds = %44, %14
  %24 = load i32, i32* %4, align 4
  %25 = load i32, i32* %2, align 4
  %26 = icmp slt i32 %24, %25
  br i1 %26, label %27, label %47

27:                                               ; preds = %23
  %28 = load i32, i32* %3, align 4
  %29 = load i32, i32* %2, align 4
  %30 = sub nsw i32 %29, 1
  %31 = srem i32 %28, %30
  %32 = icmp ne i32 %31, 0
  br i1 %32, label %33, label %34

33:                                               ; preds = %27
  store i32 0, i32* %6, align 4
  br label %47

34:                                               ; preds = %27
  %35 = load i32, i32* %3, align 4
  %36 = load i32, i32* %2, align 4
  %37 = sub nsw i32 %36, 1
  %38 = sdiv i32 %35, %37
  %39 = load i32, i32* %2, align 4
  %40 = mul nsw i32 %38, %39
  %41 = load i32, i32* %5, align 4
  %42 = add nsw i32 %40, %41
  store i32 %42, i32* %3, align 4
  br label %43

43:                                               ; preds = %34
  br label %44

44:                                               ; preds = %43
  %45 = load i32, i32* %4, align 4
  %46 = add nsw i32 %45, 1
  store i32 %46, i32* %4, align 4
  br label %23

47:                                               ; preds = %33, %23
  %48 = load i32, i32* %6, align 4
  %49 = icmp ne i32 %48, 0
  br i1 %49, label %50, label %53

50:                                               ; preds = %47
  %51 = load i32, i32* %3, align 4
  %52 = call i32 (i8*, ...) @printf(i8* getelementptr inbounds ([3 x i8], [3 x i8]* @.str.1, i64 0, i64 0), i32 %51)
  br label %57

53:                                               ; preds = %47
  br label %54

54:                                               ; preds = %53
  %55 = load x86_fp80, x86_fp80* %7, align 16
  %56 = fadd x86_fp80 %55, 0xK3FFF8000000000000000
  store x86_fp80 %56, x86_fp80* %7, align 16
  br label %11

57:                                               ; preds = %50, %11
  ret i32 0
}

declare dso_local i32 @__isoc99_scanf(i8*, ...) #1

declare dso_local i32 @printf(i8*, ...) #1


!llvm.module.flags = !{!0}
!llvm.ident = !{!1}

!0 = !{i32 1, !"wchar_size", i32 4}
!1 = !{!"clang version 10.0.0-4ubuntu1 "}
