; ModuleID = 'source-C-CXX/53/1162.c'
source_filename = "source-C-CXX/53/1162.c"
target datalayout = "e-m:e-p270:32:32-p271:32:32-p272:64:64-i64:64-f80:128-n8:16:32:64-S128"
target triple = "x86_64-pc-linux-gnu"

@.str = private unnamed_addr constant [6 x i8] c"%d %d\00", align 1
@.str.1 = private unnamed_addr constant [3 x i8] c"%d\00", align 1

; Function Attrs: nofree nounwind sspstrong uwtable
define dso_local i32 @main() local_unnamed_addr #0 {
  %1 = alloca i32, align 4
  %2 = alloca i32, align 4
  %3 = bitcast i32* %1 to i8*
  call void @llvm.lifetime.start.p0i8(i64 4, i8* nonnull %3) #3
  %4 = bitcast i32* %2 to i8*
  call void @llvm.lifetime.start.p0i8(i64 4, i8* nonnull %4) #3
  %5 = call i32 (i8*, ...) @__isoc99_scanf(i8* getelementptr inbounds ([6 x i8], [6 x i8]* @.str, i64 0, i64 0), i32* nonnull %1, i32* nonnull %2)
  %6 = load i32, i32* %2, align 4, !tbaa !5
  %7 = sitofp i32 %6 to x86_fp80
  %8 = load i32, i32* %1, align 4
  %9 = sitofp i32 %8 to x86_fp80
  %10 = add nsw i32 %8, -1
  %11 = icmp slt i32 %6, 1000000000
  br i1 %11, label %12, label %40

12:                                               ; preds = %0
  %13 = icmp sgt i32 %8, 1
  br i1 %13, label %14, label %33

14:                                               ; preds = %12, %25
  %15 = phi x86_fp80 [ %26, %25 ], [ %7, %12 ]
  %16 = fmul x86_fp80 %15, %9
  %17 = fadd x86_fp80 %16, %7
  %18 = fptosi x86_fp80 %17 to i32
  br label %19

19:                                               ; preds = %14, %28
  %20 = phi i32 [ %18, %14 ], [ %30, %28 ]
  %21 = phi i32 [ 1, %14 ], [ %31, %28 ]
  %22 = srem i32 %20, %10
  %23 = sdiv i32 %20, %10
  %24 = icmp eq i32 %22, 0
  br i1 %24, label %28, label %25

25:                                               ; preds = %19
  %26 = fadd x86_fp80 %15, 0xK3FFF8000000000000000
  %27 = fcmp olt x86_fp80 %26, 0xK401CEE6B280000000000
  br i1 %27, label %14, label %40, !llvm.loop !9

28:                                               ; preds = %19
  %29 = mul nsw i32 %23, %8
  %30 = add nsw i32 %29, %6
  %31 = add nuw nsw i32 %21, 1
  %32 = icmp eq i32 %31, %8
  br i1 %32, label %37, label %19, !llvm.loop !11

33:                                               ; preds = %12
  %34 = fmul x86_fp80 %7, %9
  %35 = fadd x86_fp80 %34, %7
  %36 = fptosi x86_fp80 %35 to i32
  br label %37

37:                                               ; preds = %28, %33
  %38 = phi i32 [ %36, %33 ], [ %30, %28 ]
  %39 = call i32 (i8*, ...) @printf(i8* nonnull dereferenceable(1) getelementptr inbounds ([3 x i8], [3 x i8]* @.str.1, i64 0, i64 0), i32 %38)
  br label %40

40:                                               ; preds = %25, %0, %37
  call void @llvm.lifetime.end.p0i8(i64 4, i8* nonnull %4) #3
  call void @llvm.lifetime.end.p0i8(i64 4, i8* nonnull %3) #3
  ret i32 0
}

; Function Attrs: argmemonly mustprogress nofree nosync nounwind willreturn
declare void @llvm.lifetime.start.p0i8(i64 immarg, i8* nocapture) #1

; Function Attrs: nofree nounwind
declare noundef i32 @__isoc99_scanf(i8* nocapture noundef readonly, ...) local_unnamed_addr #2

; Function Attrs: nofree nounwind
declare noundef i32 @printf(i8* nocapture noundef readonly, ...) local_unnamed_addr #2

; Function Attrs: argmemonly mustprogress nofree nosync nounwind willreturn
declare void @llvm.lifetime.end.p0i8(i64 immarg, i8* nocapture) #1


!llvm.module.flags = !{!0, !1, !2, !3}
!llvm.ident = !{!4}

!0 = !{i32 1, !"wchar_size", i32 4}
!1 = !{i32 7, !"PIC Level", i32 2}
!2 = !{i32 7, !"PIE Level", i32 2}
!3 = !{i32 7, !"uwtable", i32 1}
!4 = !{!"clang version 13.0.0"}
!5 = !{!6, !6, i64 0}
!6 = !{!"int", !7, i64 0}
!7 = !{!"omnipotent char", !8, i64 0}
!8 = !{!"Simple C/C++ TBAA"}
!9 = distinct !{!9, !10}
!10 = !{!"llvm.loop.mustprogress"}
!11 = distinct !{!11, !10}
